Certificate:
    Data:
        Version: 3 (0x2)
        Serial Number: 1 (0x1)
    Signature Algorithm: sha256WithRSAEncryption
        Issuer: CN=172.17.42.1,IP:11.7.4.100,IP:10.0.2.15,IP:10.6.3.100@1457434304
        Validity
            Not Before: Mar  8 10:51:45 2016 GMT
            Not After : Mar  6 10:51:45 2026 GMT
        Subject: CN=k8master
        Subject Public Key Info:
            Public Key Algorithm: rsaEncryption
                Public-Key: (2048 bit)
                Modulus:
                    00:d2:88:5a:d5:10:f8:c6:eb:84:b0:d3:8e:bd:f0:
                    b1:71:44:ea:a4:47:94:4c:27:c7:e6:b5:de:12:6e:
                    45:74:27:f4:db:d7:e8:b1:06:71:43:3f:e7:11:c1:
                    c6:2c:1f:21:f1:40:f7:eb:6c:3e:3b:87:37:f6:bc:
                    e0:57:b8:04:02:a6:11:79:68:d9:79:6e:83:47:60:
                    97:0e:9b:14:06:26:e4:58:12:3a:50:32:37:92:80:
                    e9:5c:72:4a:ed:d4:8e:87:37:9f:48:81:c6:7d:68:
                    fc:5e:86:3c:13:ff:d3:c5:26:ee:59:6b:06:01:6e:
                    e5:e0:22:87:00:c2:b2:04:fb:b7:11:b9:83:95:c5:
                    a1:3e:81:83:b2:c0:06:74:bd:02:77:c2:9e:ba:58:
                    4b:47:61:9c:15:10:6e:d7:4a:9c:5c:63:aa:27:d4:
                    86:89:7e:49:00:53:44:8a:aa:43:5e:68:e6:a8:63:
                    ea:56:ad:02:88:85:3e:70:55:be:75:02:e4:b7:ef:
                    08:08:f0:41:95:89:f9:f7:62:f5:51:92:c1:97:64:
                    7d:55:0c:a0:08:dc:dd:e7:2c:12:0a:a3:0f:3c:78:
                    9d:30:ad:16:fb:5f:13:48:ea:78:1c:f8:7b:92:99:
                    94:ee:8f:9b:7d:f7:16:3b:d4:70:ff:29:7e:1e:93:
                    d7:cd
                Exponent: 65537 (0x10001)
        X509v3 extensions:
            X509v3 Basic Constraints: 
                CA:FALSE
            X509v3 Subject Key Identifier: 
                12:D7:32:65:13:3C:A2:1D:DA:5B:3E:C3:81:68:13:FA:EF:72:A9:53
            X509v3 Authority Key Identifier: 
                keyid:A3:F2:09:96:A1:17:A8:53:32:2C:B7:24:2E:1D:33:75:E0:12:1A:6D
                DirName:/CN=172.17.42.1,IP:11.7.4.100,IP:10.0.2.15,IP:10.6.3.100@1457434304
                serial:DD:97:17:5A:20:37:78:0F

            X509v3 Extended Key Usage: 
                TLS Web Server Authentication
            X509v3 Key Usage: 
                Digital Signature, Key Encipherment
            X509v3 Subject Alternative Name: 
                IP Address:172.17.42.1, IP Address:11.7.4.100, IP Address:10.0.2.15, IP Address:10.6.3.100, IP Address:10.254.0.1, DNS:kubernetes, DNS:kubernetes.default, DNS:kubernetes.default.svc, DNS:kubernetes.default.svc.cluster.local, DNS:k8master
    Signature Algorithm: sha256WithRSAEncryption
         75:0a:53:22:4f:de:5d:1b:74:68:25:77:3e:8e:b5:eb:e8:15:
         ef:7b:b5:5b:90:8a:8b:6a:59:dd:13:4b:76:3a:77:bc:18:34:
         97:6a:b1:39:4b:54:6f:13:77:16:74:49:ab:6b:c1:6f:e4:f4:
         c2:0b:8c:47:01:5c:97:cd:af:d2:d8:e6:48:b4:bc:c4:72:46:
         24:3d:c6:30:f8:d8:e1:f9:9c:2d:3e:43:82:9c:5b:5f:c9:b4:
         37:a0:98:49:89:65:60:6f:d8:b3:06:40:a1:7f:83:e6:66:90:
         44:06:c2:ee:1d:3b:b3:94:31:13:f0:92:18:9e:bf:c3:60:a3:
         65:57:aa:0f:4d:63:04:d7:3c:06:bb:d1:13:1d:5d:39:36:72:
         2b:6e:1e:50:fd:93:95:77:ff:c2:bf:79:c6:ff:fa:94:9d:6f:
         e2:7c:1e:88:c2:6e:00:d1:68:ed:7e:d7:b9:35:f3:22:5e:b6:
         c3:60:6f:df:1b:0e:61:7d:ca:64:6a:37:2b:b0:98:a1:92:20:
         f2:9d:b6:72:22:e2:ce:23:fd:56:1a:19:35:23:bd:4d:82:ba:
         f4:84:bd:ac:f0:4b:c7:1f:5a:ca:5e:a1:18:85:64:f5:48:21:
         1e:11:dd:bc:eb:77:2e:8a:48:19:92:b2:56:13:9a:5c:1a:e9:
         bf:8c:fc:e1
-----BEGIN CERTIFICATE-----
MIIEOjCCAyKgAwIBAgIBATANBgkqhkiG9w0BAQsFADBKMUgwRgYDVQQDFD8xNzIu
MTcuNDIuMSxJUDoxMS43LjQuMTAwLElQOjEwLjAuMi4xNSxJUDoxMC42LjMuMTAw
QDE0NTc0MzQzMDQwHhcNMTYwMzA4MTA1MTQ1WhcNMjYwMzA2MTA1MTQ1WjATMREw
DwYDVQQDEwhrOG1hc3RlcjCCASIwDQYJKoZIhvcNAQEBBQADggEPADCCAQoCggEB
ANKIWtUQ+MbrhLDTjr3wsXFE6qRHlEwnx+a13hJuRXQn9NvX6LEGcUM/5xHBxiwf
IfFA9+tsPjuHN/a84Fe4BAKmEXlo2Xlug0dglw6bFAYm5FgSOlAyN5KA6VxySu3U
joc3n0iBxn1o/F6GPBP/08Um7llrBgFu5eAihwDCsgT7txG5g5XFoT6Bg7LABnS9
AnfCnrpYS0dhnBUQbtdKnFxjqifUhol+SQBTRIqqQ15o5qhj6latAoiFPnBVvnUC
5LfvCAjwQZWJ+fdi9VGSwZdkfVUMoAjc3ecsEgqjDzx4nTCtFvtfE0jqeBz4e5KZ
lO6Pm333FjvUcP8pfh6T180CAwEAAaOCAWAwggFcMAkGA1UdEwQCMAAwHQYDVR0O
BBYEFBLXMmUTPKId2ls+w4FoE/rvcqlTMHoGA1UdIwRzMHGAFKPyCZahF6hTMiy3
JC4dM3XgEhptoU6kTDBKMUgwRgYDVQQDFD8xNzIuMTcuNDIuMSxJUDoxMS43LjQu
MTAwLElQOjEwLjAuMi4xNSxJUDoxMC42LjMuMTAwQDE0NTc0MzQzMDSCCQDdlxda
IDd4DzATBgNVHSUEDDAKBggrBgEFBQcDATALBgNVHQ8EBAMCBaAwgZEGA1UdEQSB
iTCBhocErBEqAYcECwcEZIcECgACD4cECgYDZIcECv4AAYIKa3ViZXJuZXRlc4IS
a3ViZXJuZXRlcy5kZWZhdWx0ghZrdWJlcm5ldGVzLmRlZmF1bHQuc3ZjgiRrdWJl
cm5ldGVzLmRlZmF1bHQuc3ZjLmNsdXN0ZXIubG9jYWyCCGs4bWFzdGVyMA0GCSqG
SIb3DQEBCwUAA4IBAQB1ClMiT95dG3RoJXc+jrXr6BXve7VbkIqLalndE0t2One8
GDSXarE5S1RvE3cWdEmra8Fv5PTCC4xHAVyXza/S2OZItLzEckYkPcYw+Njh+Zwt
PkOCnFtfybQ3oJhJiWVgb9izBkChf4PmZpBEBsLuHTuzlDET8JIYnr/DYKNlV6oP
TWME1zwGu9ETHV05NnIrbh5Q/ZOVd//Cv3nG//qUnW/ifB6Iwm4A0Wjtfte5NfMi
XrbDYG/fGw5hfcpkajcrsJihkiDynbZyIuLOI/1WGhk1I71Ngrr0hL2s8EvHH1rK
XqEYhWT1SCEeEd2863cuikgZkrJWE5pcGum/jPzh
-----END CERTIFICATE-----
